target datalayout = "e-m:e-p270:32:32-p271:32:32-p272:64:64-i64:64-i128:128-f80:128-n8:16:32:64-S128"
target triple = "x86_64-pc-linux-gnu"

%struct.hb_glyph_info_t = type { i32, i32, i32, %union._hb_var_int_t, %union._hb_var_int_t }
%union._hb_var_int_t = type { i32 }

; Function Attrs: mustprogress nounwind uwtable
define internal noundef i32 @_ZL21compare_myanmar_orderPK15hb_glyph_info_tS1_(ptr noundef %0, ptr noundef %1) #1 {
  %3 = alloca ptr, align 8
  %4 = alloca ptr, align 8
  %5 = alloca i32, align 4
  %6 = alloca i32, align 4
  store ptr %0, ptr %3, align 8
  store ptr %1, ptr %4, align 8
  %7 = load ptr, ptr %3, align 8
  %8 = getelementptr inbounds %struct.hb_glyph_info_t, ptr %7, i32 0, i32 4
  %9 = getelementptr inbounds [4 x i8], ptr %8, i64 0, i64 3
  %10 = load i8, ptr %9, align 1
  %11 = zext i8 %10 to i32
  store i32 %11, ptr %5, align 4
  %12 = load ptr, ptr %4, align 8
  %13 = getelementptr inbounds %struct.hb_glyph_info_t, ptr %12, i32 0, i32 4
  %14 = getelementptr inbounds [4 x i8], ptr %13, i64 0, i64 3
  %15 = load i8, ptr %14, align 1
  %16 = zext i8 %15 to i32
  store i32 %16, ptr %6, align 4
  %17 = load i32, ptr %5, align 4
  %18 = load i32, ptr %6, align 4
  %19 = sub nsw i32 %17, %18
  ret i32 %19
}