; Function Attrs: mustprogress nofree norecurse nosync nounwind willreturn memory(argmem: read) uwtable
define internal noundef range(i32 -255, 256) i32 @_ZL21compare_myanmar_orderPK15hb_glyph_info_tS1_(ptr nocapture noundef readonly %0, ptr nocapture noundef readonly %1) #3 {
  %3 = getelementptr inbounds i8, ptr %0, i64 19
  %4 = load i8, ptr %3, align 1
  %5 = zext i8 %4 to i32
  %6 = getelementptr inbounds i8, ptr %1, i64 19
  %7 = load i8, ptr %6, align 1
  %8 = zext i8 %7 to i32
  %9 = sub nsw i32 %5, %8
  ret i32 %9
}